target datalayout = "e-m:e-p270:32:32-p271:32:32-p272:64:64-i64:64-i128:128-f80:128-n8:16:32:64-S128"
target triple = "x86_64-pc-linux-gnu"

; Function Attrs: mustprogress nounwind uwtable
define hidden void @_ZN12outputStream44do_vsnprintf_and_write_with_automatic_bufferEPKcP13__va_list_tagb(ptr noundef nonnull align 8 dereferenceable(56) %0, ptr noundef %1, ptr noundef %2, i1 noundef zeroext %3) #1 align 2 {
  %5 = alloca ptr, align 8
  %6 = alloca ptr, align 8
  %7 = alloca ptr, align 8
  %8 = alloca i8, align 1
  %9 = alloca [2000 x i8], align 16
  %10 = alloca i64, align 8
  %11 = alloca ptr, align 8
  store ptr %0, ptr %5, align 8
  store ptr %1, ptr %6, align 8
  store ptr %2, ptr %7, align 8
  %12 = zext i1 %3 to i8
  store i8 %12, ptr %8, align 1
  %13 = load ptr, ptr %5, align 8
  %14 = getelementptr inbounds [2000 x i8], ptr %9, i64 0, i64 0
  %15 = load ptr, ptr %6, align 8
  %16 = load ptr, ptr %7, align 8
  %17 = load i8, ptr %8, align 1
  %18 = trunc i8 %17 to i1
  %19 = call noundef ptr @_ZN12outputStream12do_vsnprintfEPcmPKcP13__va_list_tagbRm(ptr noundef %14, i64 noundef 2000, ptr noundef %15, ptr noundef %16, i1 noundef zeroext %18, ptr noundef nonnull align 8 dereferenceable(8) %10)
  store ptr %19, ptr %11, align 8
  %20 = load ptr, ptr %11, align 8
  %21 = load i64, ptr %10, align 8
  %22 = load ptr, ptr %13, align 8
  %23 = getelementptr inbounds ptr, ptr %22, i64 1
  %24 = load ptr, ptr %23, align 8
  call void %24(ptr noundef nonnull align 8 dereferenceable(56) %13, ptr noundef %20, i64 noundef %21)
  ret void
}