; Function Attrs: mustprogress nounwind uwtable
define hidden void @_ZN12outputStream44do_vsnprintf_and_write_with_automatic_bufferEPKcP13__va_list_tagb(ptr noundef nonnull align 8 dereferenceable(56) %0, ptr noundef %1, ptr noundef %2, i1 noundef zeroext %3) local_unnamed_addr #0 align 2 {
  %5 = alloca [2000 x i8], align 16
  %6 = alloca i64, align 8
  %7 = call noundef ptr @_ZN12outputStream12do_vsnprintfEPcmPKcP13__va_list_tagbRm(ptr noundef nonnull %5, i64 noundef 2000, ptr noundef %1, ptr noundef %2, i1 noundef zeroext %3, ptr noundef nonnull align 8 dereferenceable(8) %6)
  %8 = load i64, ptr %6, align 8
  %9 = load ptr, ptr %0, align 8
  %10 = getelementptr inbounds i8, ptr %9, i64 8
  %11 = load ptr, ptr %10, align 8
  call void %11(ptr noundef nonnull align 8 dereferenceable(56) %0, ptr noundef %7, i64 noundef %8) #21
  ret void
}